; Function Attrs: mustprogress nounwind uwtable
define dso_local void @_ZN4llvm9DbgRecord15eraseFromParentEv(ptr noundef nonnull align 8 dereferenceable(33) %0) local_unnamed_addr #0 align 2 {
  %2 = getelementptr inbounds nuw i8, ptr %0, i64 8
  %3 = load ptr, ptr %2, align 8
  %4 = load ptr, ptr %0, align 8
  store ptr %4, ptr %3, align 8
  %5 = getelementptr inbounds nuw i8, ptr %4, i64 8
  store ptr %3, ptr %5, align 8
  tail call void @llvm.memset.p0.i64(ptr noundef nonnull align 8 dereferenceable(24) %0, i8 0, i64 24, i1 false)
  tail call void @_ZN4llvm9DbgRecord12deleteRecordEv(ptr noundef nonnull align 8 dereferenceable(33) %0)
  ret void
}